(dp0
I1
(lp1
F-30.555
acnumpy.core.multiarray
scalar
p2
(cnumpy
dtype
p3
(S'f8'
p4
I0
I1
tp5
Rp6
(I3
S'<'
p7
NNNI-1
I-1
I0
tp8
bS'\xa4n\xb1\xb7\x1evJ@'
p9
tp10
Rp11
asI2
(lp12
F-23.765
ag11
asI3
(lp13
F-16.975
ag11
asI4
(lp14
F-10.184999999999999
ag11
asI5
(lp15
F-3.3949999999999996
ag11
asI6
(lp16
F3.395000000000003
ag11
asI7
(lp17
F10.185000000000002
ag11
asI8
(lp18
F16.975
ag11
asI9
(lp19
F23.765
ag11
asI10
(lp20
F30.555
ag11
asI11
(lp21
F-33.95
ag2
(g6
S'YbH\xa3p\x85G@'
p22
tp23
Rp24
asI12
(lp25
F-27.160000000000004
ag24
asI13
(lp26
F-20.370000000000005
ag24
asI14
(lp27
F-13.580000000000002
ag24
asI15
(lp28
F-6.790000000000003
ag24
asI16
(lp29
F0.0
ag24
asI17
(lp30
F6.789999999999999
ag24
asI18
(lp31
F13.579999999999998
ag24
asI19
(lp32
F20.369999999999997
ag24
asI20
(lp33
F27.159999999999997
ag24
asI21
(lp34
F33.95
ag24
asI22
(lp35
F-37.345
ag2
(g6
S'\x0eV\xdf\x8e\xc2\x94D@'
p36
tp37
Rp38
asI23
(lp39
F-30.555
ag38
asI24
(lp40
F-23.765
ag38
asI25
(lp41
F-16.974999999999998
ag38
asI26
(lp42
F-10.184999999999999
ag38
asI27
(lp43
F-3.394999999999996
ag38
asI28
(lp44
F3.395000000000003
ag38
asI29
(lp45
F10.185000000000002
ag38
asI30
(lp46
F16.975
ag38
asI31
(lp47
F23.765
ag38
asI32
(lp48
F30.555000000000007
ag38
asI33
(lp49
F37.345
ag38
asI34
(lp50
F-40.74
ag2
(g6
S'\xc3Ivz\x14\xa4A@'
p51
tp52
Rp53
asI35
(lp54
F-33.95
ag53
asI36
(lp55
F-27.160000000000004
ag53
asI37
(lp56
F-20.37
ag53
asI38
(lp57
F-13.580000000000002
ag53
asI39
(lp58
F-6.789999999999999
ag53
asI40
(lp59
F0.0
ag53
asI41
(lp60
F6.789999999999999
ag53
asI42
(lp61
F13.579999999999998
ag53
asI43
(lp62
F20.369999999999997
ag53
asI44
(lp63
F27.160000000000004
ag53
asI45
(lp64
F33.949999999999996
ag53
asI46
(lp65
F40.74
ag53
asI47
(lp66
F-44.135
ag2
(g6
S'\xf0z\x1a\xcc\xccf=@'
p67
tp68
Rp69
asI48
(lp70
F-37.345
ag69
asI49
(lp71
F-30.555
ag69
asI50
(lp72
F-23.764999999999997
ag69
asI51
(lp73
F-16.974999999999998
ag69
asI52
(lp74
F-10.184999999999995
ag69
asI53
(lp75
F-3.394999999999996
ag69
asI54
(lp76
F3.395000000000003
ag69
asI55
(lp77
F10.185000000000002
ag69
asI56
(lp78
F16.975
ag69
asI57
(lp79
F23.765000000000008
ag69
asI58
(lp80
F30.555
ag69
asI59
(lp81
F37.345000000000006
ag69
asI60
(lp82
F44.135
ag69
asI61
(lp83
F-47.53
ag2
(g6
S'YbH\xa3p\x857@'
p84
tp85
Rp86
asI62
(lp87
F-40.74
ag86
asI63
(lp88
F-33.95
ag86
asI64
(lp89
F-27.16
ag86
asI65
(lp90
F-20.37
ag86
asI66
(lp91
F-13.579999999999998
ag86
asI67
(lp92
F-6.789999999999999
ag86
asI68
(lp93
F0.0
ag86
asI69
(lp94
F6.789999999999999
ag86
asI70
(lp95
F13.579999999999998
ag86
asI71
(lp96
F20.370000000000005
ag86
asI72
(lp97
F27.159999999999997
ag86
asI73
(lp98
F33.95
ag86
asI74
(lp99
F40.739999999999995
ag86
asI75
(lp100
F47.53
ag86
asI76
(lp101
F-50.925
ag2
(g6
S'\xc3Ivz\x14\xa41@'
p102
tp103
Rp104
asI77
(lp105
F-44.135
ag104
asI78
(lp106
F-37.345
ag104
asI79
(lp107
F-30.554999999999996
ag104
asI80
(lp108
F-23.764999999999997
ag104
asI81
(lp109
F-16.974999999999994
ag104
asI82
(lp110
F-10.184999999999995
ag104
asI83
(lp111
F-3.394999999999996
ag104
asI84
(lp112
F3.395000000000003
ag104
asI85
(lp113
F10.185000000000002
ag104
asI86
(lp114
F16.97500000000001
ag104
asI87
(lp115
F23.765
ag104
asI88
(lp116
F30.555000000000007
ag104
asI89
(lp117
F37.345
ag104
asI90
(lp118
F44.135000000000005
ag104
asI91
(lp119
F50.925
ag104
asI92
(lp120
F-54.32
ag2
(g6
S"YbH\xa3p\x85'@"
p121
tp122
Rp123
asI93
(lp124
F-47.53
ag123
asI94
(lp125
F-40.74
ag123
asI95
(lp126
F-33.95
ag123
asI96
(lp127
F-27.16
ag123
asI97
(lp128
F-20.369999999999997
ag123
asI98
(lp129
F-13.579999999999998
ag123
asI99
(lp130
F-6.789999999999999
ag123
asI100
(lp131
F0.0
ag123
asI101
(lp132
F6.789999999999999
ag123
asI102
(lp133
F13.580000000000005
ag123
asI103
(lp134
F20.369999999999997
ag123
asI104
(lp135
F27.160000000000004
ag123
asI105
(lp136
F33.949999999999996
ag123
asI106
(lp137
F40.74
ag123
asI107
(lp138
F47.529999999999994
ag123
asI108
(lp139
F54.32
ag123
asI109
(lp140
F-57.715
ag2
(g6
S'YbH\xa3p\x85\x17@'
p141
tp142
Rp143
asI110
(lp144
F-50.925000000000004
ag143
asI111
(lp145
F-44.135000000000005
ag143
asI112
(lp146
F-37.345
ag143
asI113
(lp147
F-30.555000000000003
ag143
asI114
(lp148
F-23.765
ag143
asI115
(lp149
F-16.975
ag143
asI116
(lp150
F-10.185000000000002
ag143
asI117
(lp151
F-3.395000000000003
ag143
asI118
(lp152
F3.394999999999996
ag143
asI119
(lp153
F10.185000000000002
ag143
asI120
(lp154
F16.974999999999994
ag143
asI121
(lp155
F23.765
ag143
asI122
(lp156
F30.554999999999993
ag143
asI123
(lp157
F37.345
ag143
asI124
(lp158
F44.13499999999999
ag143
asI125
(lp159
F50.925
ag143
asI126
(lp160
F57.715
ag143
asI127
(lp161
F-61.11
ag2
(g6
S'\x00\x00\x00\x00\x00\x00\x00\x00'
p162
tp163
Rp164
asI128
(lp165
F-54.32
ag164
asI129
(lp166
F-47.53
ag164
asI130
(lp167
F-40.739999999999995
ag164
asI131
(lp168
F-33.95
ag164
asI132
(lp169
F-27.159999999999997
ag164
asI133
(lp170
F-20.369999999999997
ag164
asI134
(lp171
F-13.579999999999998
ag164
asI135
(lp172
F-6.789999999999999
ag164
asI136
(lp173
F0.0
ag164
asI137
(lp174
F6.790000000000006
ag164
asI138
(lp175
F13.579999999999998
ag164
asI139
(lp176
F20.370000000000005
ag164
asI140
(lp177
F27.159999999999997
ag164
asI141
(lp178
F33.95
ag164
asI142
(lp179
F40.739999999999995
ag164
asI143
(lp180
F47.53
ag164
asI144
(lp181
F54.32000000000001
ag164
asI145
(lp182
F61.11
ag164
asI146
(lp183
F-57.715
ag2
(g6
S'YbH\xa3p\x85\x17\xc0'
p184
tp185
Rp186
asI147
(lp187
F-50.925000000000004
ag186
asI148
(lp188
F-44.135000000000005
ag186
asI149
(lp189
F-37.345
ag186
asI150
(lp190
F-30.555000000000003
ag186
asI151
(lp191
F-23.765
ag186
asI152
(lp192
F-16.975
ag186
asI153
(lp193
F-10.185000000000002
ag186
asI154
(lp194
F-3.395000000000003
ag186
asI155
(lp195
F3.394999999999996
ag186
asI156
(lp196
F10.185000000000002
ag186
asI157
(lp197
F16.974999999999994
ag186
asI158
(lp198
F23.765
ag186
asI159
(lp199
F30.554999999999993
ag186
asI160
(lp200
F37.345
ag186
asI161
(lp201
F44.13499999999999
ag186
asI162
(lp202
F50.925
ag186
asI163
(lp203
F57.715
ag186
asI164
(lp204
F-54.32
ag2
(g6
S"YbH\xa3p\x85'\xc0"
p205
tp206
Rp207
asI165
(lp208
F-47.53
ag207
asI166
(lp209
F-40.74
ag207
asI167
(lp210
F-33.95
ag207
asI168
(lp211
F-27.16
ag207
asI169
(lp212
F-20.369999999999997
ag207
asI170
(lp213
F-13.579999999999998
ag207
asI171
(lp214
F-6.789999999999999
ag207
asI172
(lp215
F0.0
ag207
asI173
(lp216
F6.789999999999999
ag207
asI174
(lp217
F13.580000000000005
ag207
asI175
(lp218
F20.369999999999997
ag207
asI176
(lp219
F27.160000000000004
ag207
asI177
(lp220
F33.949999999999996
ag207
asI178
(lp221
F40.74
ag207
asI179
(lp222
F47.529999999999994
ag207
asI180
(lp223
F54.32
ag207
asI181
(lp224
F-50.925
ag2
(g6
S'\xc3Ivz\x14\xa41\xc0'
p225
tp226
Rp227
asI182
(lp228
F-44.135
ag227
asI183
(lp229
F-37.345
ag227
asI184
(lp230
F-30.554999999999996
ag227
asI185
(lp231
F-23.764999999999997
ag227
asI186
(lp232
F-16.974999999999994
ag227
asI187
(lp233
F-10.184999999999995
ag227
asI188
(lp234
F-3.394999999999996
ag227
asI189
(lp235
F3.395000000000003
ag227
asI190
(lp236
F10.185000000000002
ag227
asI191
(lp237
F16.97500000000001
ag227
asI192
(lp238
F23.765
ag227
asI193
(lp239
F30.555000000000007
ag227
asI194
(lp240
F37.345
ag227
asI195
(lp241
F44.135000000000005
ag227
asI196
(lp242
F50.925
ag227
asI197
(lp243
F-47.53
ag2
(g6
S'YbH\xa3p\x857\xc0'
p244
tp245
Rp246
asI198
(lp247
F-40.74
ag246
asI199
(lp248
F-33.95
ag246
asI200
(lp249
F-27.16
ag246
asI201
(lp250
F-20.37
ag246
asI202
(lp251
F-13.579999999999998
ag246
asI203
(lp252
F-6.789999999999999
ag246
asI204
(lp253
F0.0
ag246
asI205
(lp254
F6.789999999999999
ag246
asI206
(lp255
F13.579999999999998
ag246
asI207
(lp256
F20.370000000000005
ag246
asI208
(lp257
F27.159999999999997
ag246
asI209
(lp258
F33.95
ag246
asI210
(lp259
F40.739999999999995
ag246
asI211
(lp260
F47.53
ag246
asI212
(lp261
F-44.135
ag2
(g6
S'\xf0z\x1a\xcc\xccf=\xc0'
p262
tp263
Rp264
asI213
(lp265
F-37.345
ag264
asI214
(lp266
F-30.555
ag264
asI215
(lp267
F-23.764999999999997
ag264
asI216
(lp268
F-16.974999999999998
ag264
asI217
(lp269
F-10.184999999999995
ag264
asI218
(lp270
F-3.394999999999996
ag264
asI219
(lp271
F3.395000000000003
ag264
asI220
(lp272
F10.185000000000002
ag264
asI221
(lp273
F16.975
ag264
asI222
(lp274
F23.765000000000008
ag264
asI223
(lp275
F30.555
ag264
asI224
(lp276
F37.345000000000006
ag264
asI225
(lp277
F44.135
ag264
asI226
(lp278
F-40.74
ag2
(g6
S'\xc3Ivz\x14\xa4A\xc0'
p279
tp280
Rp281
asI227
(lp282
F-33.95
ag281
asI228
(lp283
F-27.160000000000004
ag281
asI229
(lp284
F-20.37
ag281
asI230
(lp285
F-13.580000000000002
ag281
asI231
(lp286
F-6.789999999999999
ag281
asI232
(lp287
F0.0
ag281
asI233
(lp288
F6.789999999999999
ag281
asI234
(lp289
F13.579999999999998
ag281
asI235
(lp290
F20.369999999999997
ag281
asI236
(lp291
F27.160000000000004
ag281
asI237
(lp292
F33.949999999999996
ag281
asI238
(lp293
F40.74
ag281
asI239
(lp294
F-37.345
ag2
(g6
S'\x0eV\xdf\x8e\xc2\x94D\xc0'
p295
tp296
Rp297
asI240
(lp298
F-30.555
ag297
asI241
(lp299
F-23.765
ag297
asI242
(lp300
F-16.974999999999998
ag297
asI243
(lp301
F-10.184999999999999
ag297
asI244
(lp302
F-3.394999999999996
ag297
asI245
(lp303
F3.395000000000003
ag297
asI246
(lp304
F10.185000000000002
ag297
asI247
(lp305
F16.975
ag297
asI248
(lp306
F23.765
ag297
asI249
(lp307
F30.555000000000007
ag297
asI250
(lp308
F37.345
ag297
asI251
(lp309
F-33.95
ag2
(g6
S'YbH\xa3p\x85G\xc0'
p310
tp311
Rp312
asI252
(lp313
F-27.160000000000004
ag312
asI253
(lp314
F-20.370000000000005
ag312
asI254
(lp315
F-13.580000000000002
ag312
asI255
(lp316
F-6.790000000000003
ag312
asI256
(lp317
F0.0
ag312
asI257
(lp318
F6.789999999999999
ag312
asI258
(lp319
F13.579999999999998
ag312
asI259
(lp320
F20.369999999999997
ag312
asI260
(lp321
F27.159999999999997
ag312
asI261
(lp322
F33.95
ag312
asI262
(lp323
F-30.555
ag2
(g6
S'\xa4n\xb1\xb7\x1evJ\xc0'
p324
tp325
Rp326
asI263
(lp327
F-23.765
ag326
asI264
(lp328
F-16.975
ag326
asI265
(lp329
F-10.184999999999999
ag326
asI266
(lp330
F-3.3949999999999996
ag326
asI267
(lp331
F3.395000000000003
ag326
asI268
(lp332
F10.185000000000002
ag326
asI269
(lp333
F16.975
ag326
asI270
(lp334
F23.765
ag326
asI271
(lp335
F30.555
ag326
as.